; Function Attrs: mustprogress nofree norecurse nosync nounwind willreturn memory(argmem: read) uwtable
define internal noundef i64 @_ZN7rocksdb12_GLOBAL__N_122XXPH3FilterBitsBuilder20EstimateEntriesAddedEv(ptr nocapture noundef nonnull readonly align 8 dereferenceable(288) %this) unnamed_addr #16 align 2 {
entry:
  %_M_finish.i = getelementptr inbounds i8, ptr %this, i64 168
  %_M_start.i = getelementptr inbounds i8, ptr %this, i64 136
  %_M_node.i.i = getelementptr inbounds i8, ptr %this, i64 192
  %0 = load ptr, ptr %_M_node.i.i, align 8
  %_M_node1.i.i = getelementptr inbounds i8, ptr %this, i64 160
  %1 = load ptr, ptr %_M_node1.i.i, align 8
  %sub.ptr.lhs.cast.i.i = ptrtoint ptr %0 to i64
  %sub.ptr.rhs.cast.i.i = ptrtoint ptr %1 to i64
  %sub.ptr.sub.i.i = sub i64 %sub.ptr.lhs.cast.i.i, %sub.ptr.rhs.cast.i.i
  %sub.ptr.div.i.i = ashr exact i64 %sub.ptr.sub.i.i, 3
  %tobool.i.i = icmp ne ptr %0, null
  %conv.neg.i.i = sext i1 %tobool.i.i to i64
  %sub.i.i = add nsw i64 %sub.ptr.div.i.i, %conv.neg.i.i
  %mul.i.i = shl nsw i64 %sub.i.i, 6
  %2 = load ptr, ptr %_M_finish.i, align 8
  %_M_first.i.i = getelementptr inbounds i8, ptr %this, i64 176
  %3 = load ptr, ptr %_M_first.i.i, align 8
  %sub.ptr.lhs.cast3.i.i = ptrtoint ptr %2 to i64
  %sub.ptr.rhs.cast4.i.i = ptrtoint ptr %3 to i64
  %sub.ptr.sub5.i.i = sub i64 %sub.ptr.lhs.cast3.i.i, %sub.ptr.rhs.cast4.i.i
  %sub.ptr.div6.i.i = ashr exact i64 %sub.ptr.sub5.i.i, 3
  %add.i.i = add nsw i64 %mul.i.i, %sub.ptr.div6.i.i
  %_M_last.i.i = getelementptr inbounds i8, ptr %this, i64 152
  %4 = load ptr, ptr %_M_last.i.i, align 8
  %5 = load ptr, ptr %_M_start.i, align 8
  %sub.ptr.lhs.cast8.i.i = ptrtoint ptr %4 to i64
  %sub.ptr.rhs.cast9.i.i = ptrtoint ptr %5 to i64
  %sub.ptr.sub10.i.i = sub i64 %sub.ptr.lhs.cast8.i.i, %sub.ptr.rhs.cast9.i.i
  %sub.ptr.div11.i.i = ashr exact i64 %sub.ptr.sub10.i.i, 3
  %add12.i.i = add nsw i64 %add.i.i, %sub.ptr.div11.i.i
  ret i64 %add12.i.i
}